target datalayout = "e-m:e-p270:32:32-p271:32:32-p272:64:64-i64:64-i128:128-f80:128-n8:16:32:64-S128"
target triple = "x86_64-pc-linux-gnu"

@FlightRecorder = external global i8, align 1
@_ZL8_enabled = internal global i8 0, align 1
@_ZL8_created = internal global i8 0, align 1
@_ZL9_post_box = internal global ptr null, align 8
@_ZL19_checkpoint_manager = internal global ptr null, align 8
@_ZN6Thread12_thr_currentE = external thread_local global ptr, align 8

; Function Attrs: mustprogress nounwind uwtable
define linkonce_odr hidden noundef ptr @_ZN6Thread15current_or_nullEv() #1 comdat align 2 {
  %1 = call align 8 ptr @llvm.threadlocal.address.p0(ptr align 8 @_ZN6Thread12_thr_currentE)
  %2 = load ptr, ptr %1, align 8
  ret ptr %2
}

; Function Attrs: mustprogress nounwind uwtable
define linkonce_odr hidden noundef ptr @_ZN10JavaThread4castEP6Thread(ptr noundef %0) #1 comdat align 2 {
  %2 = alloca ptr, align 8
  store ptr %0, ptr %2, align 8
  %3 = load ptr, ptr %2, align 8
  ret ptr %3
}

; Function Attrs: mustprogress nounwind uwtable
define linkonce_odr hidden noundef ptr @_ZN6Thread7currentEv() #1 comdat align 2 {
  %1 = alloca ptr, align 8
  %2 = call noundef ptr @_ZN6Thread15current_or_nullEv()
  store ptr %2, ptr %1, align 8
  %3 = load ptr, ptr %1, align 8
  ret ptr %3
}

; Function Attrs: mustprogress nounwind uwtable
define linkonce_odr hidden noundef i32 @_ZN13JVMFlagAccess3setIbLi0EEEN7JVMFlag5ErrorE12JVMFlagsEnumT_13JVMFlagOrigin(i32 noundef %0, i1 noundef zeroext %1, i32 noundef %2) #1 comdat align 2 {
  %4 = alloca i32, align 4
  %5 = alloca i8, align 1
  %6 = alloca i32, align 4
  store i32 %0, ptr %4, align 4
  %7 = zext i1 %1 to i8
  store i8 %7, ptr %5, align 1
  store i32 %2, ptr %6, align 4
  %8 = load i32, ptr %4, align 4
  %9 = load i32, ptr %6, align 4
  %10 = call noundef i32 @_ZN13JVMFlagAccess13set_or_assertE12JVMFlagsEnumiPv13JVMFlagOrigin(i32 noundef %8, i32 noundef 0, ptr noundef %5, i32 noundef %9)
  ret i32 %10
}

; Function Attrs: mustprogress nounwind uwtable
define linkonce_odr hidden noundef ptr @_ZN10JavaThread7currentEv() #1 comdat align 2 {
  %1 = call noundef ptr @_ZN6Thread7currentEv()
  %2 = call noundef ptr @_ZN10JavaThread4castEP6Thread(ptr noundef %1)
  ret ptr %2
}

; Function Attrs: mustprogress nounwind uwtable
define linkonce_odr hidden noundef i32 @_Z23Flag_FlightRecorder_setb13JVMFlagOrigin(i1 noundef zeroext %0, i32 noundef %1) #1 comdat {
  %3 = alloca i8, align 1
  %4 = alloca i32, align 4
  %5 = zext i1 %0 to i8
  store i8 %5, ptr %3, align 1
  store i32 %1, ptr %4, align 4
  %6 = load i8, ptr %3, align 1
  %7 = trunc i8 %6 to i1
  %8 = load i32, ptr %4, align 4
  %9 = call noundef i32 @_ZN13JVMFlagAccess3setIbLi0EEEN7JVMFlag5ErrorE12JVMFlagsEnumT_13JVMFlagOrigin(i32 noundef 912, i1 noundef zeroext %7, i32 noundef %8)
  ret i32 %9
}

; Function Attrs: mustprogress nounwind uwtable
define hidden noundef zeroext i1 @_ZN11JfrRecorder22create_recorder_threadEv() #1 align 2 {
  %1 = load ptr, ptr @_ZL19_checkpoint_manager, align 8
  %2 = load ptr, ptr @_ZL9_post_box, align 8
  %3 = call noundef ptr @_ZN10JavaThread7currentEv()
  %4 = call noundef zeroext i1 @_ZN17JfrRecorderThread5startEP20JfrCheckpointManagerP10JfrPostBoxP10JavaThread(ptr noundef %1, ptr noundef %2, ptr noundef %3)
  ret i1 %4
}

; Function Attrs: mustprogress nounwind uwtable
define internal noundef zeroext i1 @_ZL6enablev() #1 {
  %1 = load i8, ptr @FlightRecorder, align 1
  %2 = trunc i8 %1 to i1
  br i1 %2, label %5, label %3

3:                                                ; preds = %0
  %4 = call noundef i32 @_Z23Flag_FlightRecorder_setb13JVMFlagOrigin(i1 noundef zeroext true, i32 noundef 4)
  br label %5

5:                                                ; preds = %3, %0
  %6 = load i8, ptr @FlightRecorder, align 1
  %7 = trunc i8 %6 to i1
  %8 = zext i1 %7 to i8
  store i8 %8, ptr @_ZL8_enabled, align 1
  %9 = load i8, ptr @_ZL8_enabled, align 1
  %10 = trunc i8 %9 to i1
  ret i1 %10
}

; Function Attrs: mustprogress nounwind uwtable
define hidden noundef zeroext i1 @_ZN11JfrRecorder10is_enabledEv() #1 align 2 {
  %1 = load i8, ptr @_ZL8_enabled, align 1
  %2 = trunc i8 %1 to i1
  ret i1 %2
}

; Function Attrs: mustprogress nounwind uwtable
define hidden noundef zeroext i1 @_ZN11JfrRecorder6createEb(i1 noundef zeroext %0) #1 align 2 {
  %2 = alloca i1, align 1
  %3 = alloca i8, align 1
  %4 = zext i1 %0 to i8
  store i8 %4, ptr %3, align 1
  %5 = call noundef zeroext i1 @_ZN11JfrRecorder10is_enabledEv()
  br i1 %5, label %8, label %6

6:                                                ; preds = %1
  %7 = call noundef zeroext i1 @_ZL6enablev()
  br label %8

8:                                                ; preds = %6, %1
  %9 = call noundef zeroext i1 @_ZN11JfrRecorder17create_componentsEv()
  br i1 %9, label %10, label %13

10:                                               ; preds = %8
  %11 = load i8, ptr %3, align 1
  %12 = trunc i8 %11 to i1
  br i1 %12, label %13, label %14

13:                                               ; preds = %10, %8
  call void @_ZN11JfrRecorder18destroy_componentsEv()
  store i1 false, ptr %2, align 1
  br label %18

14:                                               ; preds = %10
  %15 = call noundef zeroext i1 @_ZN11JfrRecorder22create_recorder_threadEv()
  br i1 %15, label %17, label %16

16:                                               ; preds = %14
  call void @_ZN11JfrRecorder18destroy_componentsEv()
  store i1 false, ptr %2, align 1
  br label %18

17:                                               ; preds = %14
  store i8 1, ptr @_ZL8_created, align 1
  store i1 true, ptr %2, align 1
  br label %18

18:                                               ; preds = %17, %16, %13
  %19 = load i1, ptr %2, align 1
  ret i1 %19
}