; Function Attrs: mustprogress nounwind uwtable
define hidden noundef zeroext i1 @_ZN11JfrRecorder6createEb(i1 noundef zeroext %0) local_unnamed_addr #0 align 2 {
  %2 = alloca i8, align 1
  %3 = load i8, ptr @_ZL8_enabled, align 1
  %4 = trunc nuw i8 %3 to i1
  br i1 %4, label %12, label %5

5:                                                ; preds = %1
  %6 = load i8, ptr @FlightRecorder, align 1
  %7 = trunc i8 %6 to i1
  br i1 %7, label %_ZL6enablev.exit, label %8

8:                                                ; preds = %5
  call void @llvm.lifetime.start.p0(i64 1, ptr nonnull %2)
  store i8 1, ptr %2, align 1
  %9 = call noundef i32 @_ZN13JVMFlagAccess13set_or_assertE12JVMFlagsEnumiPv13JVMFlagOrigin(i32 noundef 912, i32 noundef 0, ptr noundef nonnull %2, i32 noundef 4) #11
  call void @llvm.lifetime.end.p0(i64 1, ptr nonnull %2)
  %.pre.i = load i8, ptr @FlightRecorder, align 1
  br label %_ZL6enablev.exit

_ZL6enablev.exit:                                 ; preds = %5, %8
  %10 = phi i8 [ %.pre.i, %8 ], [ %6, %5 ]
  %11 = and i8 %10, 1
  store i8 %11, ptr @_ZL8_enabled, align 1
  br label %12

12:                                               ; preds = %_ZL6enablev.exit, %1
  %13 = call noundef zeroext i1 @_ZN11JfrRecorder17create_componentsEv()
  %.not = xor i1 %13, true
  %brmerge = or i1 %.not, %0
  br i1 %brmerge, label %14, label %15

14:                                               ; preds = %12
  call void @_ZN11JfrRecorder18destroy_componentsEv()
  br label %23

15:                                               ; preds = %12
  %16 = load ptr, ptr @_ZL19_checkpoint_manager, align 8
  %17 = load ptr, ptr @_ZL9_post_box, align 8
  %18 = call align 8 ptr @llvm.threadlocal.address.p0(ptr align 8 @_ZN6Thread12_thr_currentE)
  %19 = load ptr, ptr %18, align 8
  %20 = call noundef zeroext i1 @_ZN17JfrRecorderThread5startEP20JfrCheckpointManagerP10JfrPostBoxP10JavaThread(ptr noundef %16, ptr noundef %17, ptr noundef %19) #11
  br i1 %20, label %22, label %21

21:                                               ; preds = %15
  call void @_ZN11JfrRecorder18destroy_componentsEv()
  br label %23

22:                                               ; preds = %15
  store i1 true, ptr @_ZL8_created, align 1
  br label %23

23:                                               ; preds = %22, %21, %14
  %.0 = phi i1 [ false, %14 ], [ true, %22 ], [ false, %21 ]
  ret i1 %.0
}